EXPORTS
    _ZN20enregistreur_fichier15connecterEntreeERKSt10shared_ptrI4flotEj @1
    _ZN20enregistreur_fichier8calculerEv @2
    _ZN20enregistreur_fichier9getStreamEv @3
    _ZN20enregistreur_fichierC1ENSt7__cxx1112basic_stringIcSt11char_traitsIcESaIcEEEj @4
    _ZN20enregistreur_fichierC2ENSt7__cxx1112basic_stringIcSt11char_traitsIcESaIcEEEj @5
    _ZN20enregistreur_fichierD0Ev @6
    _ZN20enregistreur_fichierD1Ev @7
    _ZN20enregistreur_fichierD2Ev @8
    _ZN24enregistreur_fichier_wavC1ENSt7__cxx1112basic_stringIcSt11char_traitsIcESaIcEEEj @9
    _ZN24enregistreur_fichier_wavC2ENSt7__cxx1112basic_stringIcSt11char_traitsIcESaIcEEEj @10
    _ZN24enregistreur_fichier_wavD0Ev @11
    _ZN24enregistreur_fichier_wavD1Ev @12
    _ZN24enregistreur_fichier_wavD2Ev @13
    _ZN26enregistreur_fichier_texte15connecterEntreeERKSt10shared_ptrI4flotEj @14
    _ZN26enregistreur_fichier_texte8calculerEv @15
    _ZN26enregistreur_fichier_texteC1ENSt7__cxx1112basic_stringIcSt11char_traitsIcESaIcEEEj @16
    _ZN26enregistreur_fichier_texteC2ENSt7__cxx1112basic_stringIcSt11char_traitsIcESaIcEEEj @17
    _ZN26enregistreur_fichier_texteD0Ev @18
    _ZN26enregistreur_fichier_texteD1Ev @19
    _ZN26enregistreur_fichier_texteD2Ev @20
    _ZNK20enregistreur_fichier13getNomFichierB5cxx11Ev @21
    _ZNK20enregistreur_fichier17yaDesEchantillonsEv @22
    _ZNK20enregistreur_fichier9getEntreeEj @23
    _ZNK20enregistreur_fichier9nbEntreesEv @24
    _ZNK26enregistreur_fichier_texte17yaDesEchantillonsEv @25
    _ZNK26enregistreur_fichier_texte9getEntreeEj @26
    _ZNK26enregistreur_fichier_texte9nbEntreesEv @27
